target datalayout = "e-m:e-p270:32:32-p271:32:32-p272:64:64-i64:64-i128:128-f80:128-n8:16:32:64-S128"
target triple = "x86_64-pc-linux-gnu"

%struct.png_struct_def = type { [1 x %struct.__jmp_buf_tag], ptr, ptr, i64, ptr, ptr, ptr, ptr, ptr, ptr, ptr, ptr, ptr, i8, i8, i32, i32, i32, i32, %struct.z_stream_s, ptr, i32, i32, i32, i32, i32, i32, i32, i32, i32, i32, i32, i32, i32, i32, i32, i32, i32, i32, i32, i32, i32, i64, i32, i32, i32, ptr, ptr, ptr, ptr, i64, i32, i32, ptr, i16, i32, i16, i8, i8, i8, i8, i8, i8, i8, i8, i8, i8, i8, i8, i8, i8, i8, i16, i8, i32, %struct.png_color_16_struct, %struct.png_color_16_struct, ptr, i32, i32, %struct.png_xy, i32, i32, i32, i32, i32, ptr, ptr, ptr, ptr, ptr, ptr, %struct.png_color_8_struct, %struct.png_color_8_struct, ptr, %struct.png_color_16_struct, ptr, ptr, ptr, ptr, ptr, ptr, ptr, ptr, ptr, i32, i32, i64, i64, i64, i64, i32, i32, ptr, ptr, i32, [29 x i8], i32, ptr, ptr, i32, i32, ptr, i8, i8, i16, i16, ptr, i32, i8, ptr, ptr, ptr, ptr, ptr, ptr, ptr, i8, i32, i32, i32, i64, %struct.png_unknown_chunk_t, i64, ptr, i64, i32, i32, ptr, [4 x ptr] }
%struct.__jmp_buf_tag = type { [8 x i64], i32, %struct.__sigset_t }
%struct.__sigset_t = type { [16 x i64] }
%struct.z_stream_s = type { ptr, i32, i64, ptr, i32, i64, ptr, ptr, ptr, ptr, ptr, i32, i64, i64 }
%struct.png_xy = type { i32, i32, i32, i32, i32, i32, i32, i32 }
%struct.png_color_8_struct = type { i8, i8, i8, i8, i8 }
%struct.png_color_16_struct = type { i8, i16, i16, i16, i16 }
%struct.png_unknown_chunk_t = type { [5 x i8], ptr, i64, i8 }

@.str.30 = private unnamed_addr constant [8 x i8] c"invalid\00", align 1

; Function Attrs: nounwind uwtable
define void @png_crc_read(ptr noalias noundef %0, ptr noundef %1, i32 noundef %2) #0 {
  %4 = alloca ptr, align 8
  %5 = alloca ptr, align 8
  %6 = alloca i32, align 4
  store ptr %0, ptr %4, align 8, !tbaa !3
  store ptr %1, ptr %5, align 8, !tbaa !8
  store i32 %2, ptr %6, align 4, !tbaa !11
  %7 = load ptr, ptr %4, align 8, !tbaa !3
  %8 = icmp eq ptr %7, null
  br i1 %8, label %9, label %10

9:                                                ; preds = %3
  br label %19

10:                                               ; preds = %3
  %11 = load ptr, ptr %4, align 8, !tbaa !3
  %12 = load ptr, ptr %5, align 8, !tbaa !8
  %13 = load i32, ptr %6, align 4, !tbaa !11
  %14 = zext i32 %13 to i64
  call void @png_read_data(ptr noundef %11, ptr noundef %12, i64 noundef %14)
  %15 = load ptr, ptr %4, align 8, !tbaa !3
  %16 = load ptr, ptr %5, align 8, !tbaa !8
  %17 = load i32, ptr %6, align 4, !tbaa !11
  %18 = zext i32 %17 to i64
  call void @png_calculate_crc(ptr noundef %15, ptr noundef %16, i64 noundef %18)
  br label %19

19:                                               ; preds = %10, %9
  ret void
}

; Function Attrs: nounwind uwtable
define i32 @png_crc_finish(ptr noalias noundef %0, i32 noundef %1) #0 {
  %3 = alloca ptr, align 8
  %4 = alloca i32, align 4
  store ptr %0, ptr %3, align 8, !tbaa !3
  store i32 %1, ptr %4, align 4, !tbaa !11
  %5 = load ptr, ptr %3, align 8, !tbaa !3
  %6 = load i32, ptr %4, align 4, !tbaa !11
  %7 = call i32 @png_crc_finish_critical(ptr noundef %5, i32 noundef %6, i32 noundef 0)
  ret i32 %7
}

; Function Attrs: nounwind uwtable
define internal i32 @png_handle_hIST(ptr noalias noundef %0, ptr noalias noundef %1, i32 noundef %2) #0 {
  %4 = alloca i32, align 4
  %5 = alloca ptr, align 8
  %6 = alloca ptr, align 8
  %7 = alloca i32, align 4
  %8 = alloca i32, align 4
  %9 = alloca i32, align 4
  %10 = alloca [256 x i16], align 16
  %11 = alloca i32, align 4
  %12 = alloca [2 x i8], align 1
  store ptr %0, ptr %5, align 8, !tbaa !3
  store ptr %1, ptr %6, align 8, !tbaa !13
  store i32 %2, ptr %7, align 4, !tbaa !11
  call void @llvm.lifetime.start.p0(i64 4, ptr %8) #7
  call void @llvm.lifetime.start.p0(i64 4, ptr %9) #7
  call void @llvm.lifetime.start.p0(i64 512, ptr %10) #7
  %13 = load i32, ptr %7, align 4, !tbaa !11
  %14 = udiv i32 %13, 2
  store i32 %14, ptr %8, align 4, !tbaa !11
  %15 = load i32, ptr %7, align 4, !tbaa !11
  %16 = load i32, ptr %8, align 4, !tbaa !11
  %17 = mul i32 %16, 2
  %18 = icmp ne i32 %15, %17
  br i1 %18, label %29, label %19

19:                                               ; preds = %3
  %20 = load i32, ptr %8, align 4, !tbaa !11
  %21 = load ptr, ptr %5, align 8, !tbaa !3
  %22 = getelementptr inbounds nuw %struct.png_struct_def, ptr %21, i32 0, i32 54
  %23 = load i16, ptr %22, align 8, !tbaa !143
  %24 = zext i16 %23 to i32
  %25 = icmp ne i32 %20, %24
  br i1 %25, label %29, label %26

26:                                               ; preds = %19
  %27 = load i32, ptr %8, align 4, !tbaa !11
  %28 = icmp ugt i32 %27, 256
  br i1 %28, label %29, label %34

29:                                               ; preds = %26, %19, %3
  %30 = load ptr, ptr %5, align 8, !tbaa !3
  %31 = load i32, ptr %7, align 4, !tbaa !11
  %32 = call i32 @png_crc_finish(ptr noundef %30, i32 noundef %31)
  %33 = load ptr, ptr %5, align 8, !tbaa !3
  call void @png_chunk_benign_error(ptr noundef %33, ptr noundef @.str.30)
  store i32 0, ptr %4, align 4
  store i32 1, ptr %11, align 4
  br label %67

34:                                               ; preds = %26
  store i32 0, ptr %9, align 4, !tbaa !11
  br label %35

35:                                               ; preds = %55, %34
  %36 = load i32, ptr %9, align 4, !tbaa !11
  %37 = load i32, ptr %8, align 4, !tbaa !11
  %38 = icmp ult i32 %36, %37
  br i1 %38, label %39, label %58

39:                                               ; preds = %35
  call void @llvm.lifetime.start.p0(i64 2, ptr %12) #7
  %40 = load ptr, ptr %5, align 8, !tbaa !3
  %41 = getelementptr inbounds [2 x i8], ptr %12, i64 0, i64 0
  call void @png_crc_read(ptr noundef %40, ptr noundef %41, i32 noundef 2)
  %42 = getelementptr inbounds [2 x i8], ptr %12, i64 0, i64 0
  %43 = load i8, ptr %42, align 1, !tbaa !10
  %44 = zext i8 %43 to i32
  %45 = shl i32 %44, 8
  %46 = getelementptr inbounds [2 x i8], ptr %12, i64 0, i64 0
  %47 = getelementptr inbounds i8, ptr %46, i64 1
  %48 = load i8, ptr %47, align 1, !tbaa !10
  %49 = zext i8 %48 to i32
  %50 = add i32 %45, %49
  %51 = trunc i32 %50 to i16
  %52 = load i32, ptr %9, align 4, !tbaa !11
  %53 = zext i32 %52 to i64
  %54 = getelementptr inbounds nuw [256 x i16], ptr %10, i64 0, i64 %53
  store i16 %51, ptr %54, align 2, !tbaa !65
  call void @llvm.lifetime.end.p0(i64 2, ptr %12) #7
  br label %55

55:                                               ; preds = %39
  %56 = load i32, ptr %9, align 4, !tbaa !11
  %57 = add i32 %56, 1
  store i32 %57, ptr %9, align 4, !tbaa !11
  br label %35, !llvm.loop !144

58:                                               ; preds = %35
  %59 = load ptr, ptr %5, align 8, !tbaa !3
  %60 = call i32 @png_crc_finish(ptr noundef %59, i32 noundef 0)
  %61 = icmp ne i32 %60, 0
  br i1 %61, label %62, label %63

62:                                               ; preds = %58
  store i32 0, ptr %4, align 4
  store i32 1, ptr %11, align 4
  br label %67

63:                                               ; preds = %58
  %64 = load ptr, ptr %5, align 8, !tbaa !3
  %65 = load ptr, ptr %6, align 8, !tbaa !13
  %66 = getelementptr inbounds [256 x i16], ptr %10, i64 0, i64 0
  call void @png_set_hIST(ptr noundef %64, ptr noundef %65, ptr noundef %66)
  store i32 3, ptr %4, align 4
  store i32 1, ptr %11, align 4
  br label %67

67:                                               ; preds = %63, %62, %29
  call void @llvm.lifetime.end.p0(i64 512, ptr %10) #7
  call void @llvm.lifetime.end.p0(i64 4, ptr %9) #7
  call void @llvm.lifetime.end.p0(i64 4, ptr %8) #7
  %68 = load i32, ptr %4, align 4
  ret i32 %68
}