; Function Attrs: nounwind uwtable
define internal range(i32 0, 4) i32 @png_handle_hIST(ptr noalias noundef %0, ptr noalias noundef %1, i32 noundef %2) #0 {
  %4 = alloca [256 x i16], align 16
  %5 = alloca [2 x i8], align 1
  call void @llvm.lifetime.start.p0(i64 512, ptr nonnull %4) #12
  %6 = lshr i32 %2, 1
  %7 = and i32 %2, 1
  %.not = icmp eq i32 %7, 0
  br i1 %.not, label %8, label %15

8:                                                ; preds = %3
  %9 = getelementptr inbounds nuw i8, ptr %0, i64 608
  %10 = load i16, ptr %9, align 8, !tbaa !165
  %11 = zext i16 %10 to i32
  %12 = icmp ne i32 %6, %11
  %13 = icmp ugt i32 %2, 513
  %or.cond = or i1 %13, %12
  br i1 %or.cond, label %15, label %.preheader

.preheader:                                       ; preds = %8
  %.not22 = icmp samesign ult i32 %2, 2
  br i1 %.not22, label %._crit_edge, label %png_crc_read.exit.preheader

png_crc_read.exit.preheader:                      ; preds = %.preheader
  %14 = getelementptr inbounds nuw i8, ptr %5, i64 1
  %wide.trip.count = zext nneg i32 %6 to i64
  br label %png_crc_read.exit

15:                                               ; preds = %8, %3
  %16 = tail call fastcc range(i32 0, 2) i32 @png_crc_finish_critical(ptr noundef %0, i32 noundef %2, i32 noundef 0)
  tail call void @png_chunk_benign_error(ptr noundef %0, ptr noundef nonnull @.str.30) #12
  br label %26

png_crc_read.exit:                                ; preds = %png_crc_read.exit.preheader, %png_crc_read.exit
  %indvars.iv = phi i64 [ 0, %png_crc_read.exit.preheader ], [ %indvars.iv.next, %png_crc_read.exit ]
  call void @llvm.lifetime.start.p0(i64 2, ptr nonnull %5) #12
  call void @png_read_data(ptr noundef nonnull %0, ptr noundef nonnull %5, i64 noundef 2) #12
  call void @png_calculate_crc(ptr noundef nonnull %0, ptr noundef nonnull %5, i64 noundef 2) #12
  %17 = load i8, ptr %5, align 1, !tbaa !3
  %18 = zext i8 %17 to i16
  %19 = shl nuw i16 %18, 8
  %20 = load i8, ptr %14, align 1, !tbaa !3
  %21 = zext i8 %20 to i16
  %22 = or disjoint i16 %19, %21
  %23 = getelementptr inbounds nuw [256 x i16], ptr %4, i64 0, i64 %indvars.iv
  store i16 %22, ptr %23, align 2, !tbaa !64
  call void @llvm.lifetime.end.p0(i64 2, ptr nonnull %5) #12
  %indvars.iv.next = add nuw nsw i64 %indvars.iv, 1
  %exitcond.not = icmp eq i64 %indvars.iv.next, %wide.trip.count
  br i1 %exitcond.not, label %._crit_edge, label %png_crc_read.exit, !llvm.loop !166

._crit_edge:                                      ; preds = %png_crc_read.exit, %.preheader
  %24 = call fastcc range(i32 0, 2) i32 @png_crc_finish_critical(ptr noundef nonnull %0, i32 noundef 0, i32 noundef 0)
  %.not20 = icmp eq i32 %24, 0
  br i1 %.not20, label %25, label %26

25:                                               ; preds = %._crit_edge
  call void @png_set_hIST(ptr noundef nonnull %0, ptr noundef %1, ptr noundef nonnull %4) #12
  br label %26

26:                                               ; preds = %._crit_edge, %25, %15
  %.018 = phi i32 [ 0, %15 ], [ 3, %25 ], [ 0, %._crit_edge ]
  call void @llvm.lifetime.end.p0(i64 512, ptr nonnull %4) #12
  ret i32 %.018
}